target datalayout = "e-m:e-p270:32:32-p271:32:32-p272:64:64-i64:64-i128:128-f80:128-n8:16:32:64-S128"
target triple = "x86_64-pc-linux-gnu"

%struct._packet_info = type { ptr, ptr, i32, i32, %struct.nstime_t, %struct.nstime_t, %struct.nstime_t, i8, ptr, ptr, ptr, ptr, %struct._address, %struct._address, %struct._address, %struct._address, %struct._address, %struct._address, i32, ptr, i8, [3 x i8], %struct.anon, i32, i32, i32, i32, ptr, i8, ptr, ptr, i16, i16, i32, i32, i16, i32, i32, ptr, ptr, ptr, i8, i8, i16, i16, i16, i32, i16, i16, ptr, ptr, ptr, ptr, ptr, i32, i32 }
%struct.nstime_t = type { i64, i32 }
%struct._address = type { i32, i32, ptr, ptr }
%struct.anon = type { i8, [3 x i8] }
%struct._asn1_ctx_t = type { i32, i32, i8, ptr, ptr, ptr, ptr, ptr, %struct.anon.0, %struct.anon.3, %struct.anon.4, ptr }
%struct.anon.0 = type { i32, i8, i8, i8, ptr, ptr, i32, i32, ptr, ptr, ptr, %union.anon }
%union.anon = type { %struct.anon.1 }
%struct.anon.1 = type { ptr }
%struct.anon.3 = type { ptr, ptr, ptr }
%struct.anon.4 = type { i32, i8, ptr, i32, i32, ptr, ptr, ptr, %union.anon.5 }
%union.anon.5 = type { %struct.anon.6 }
%struct.anon.6 = type { ptr }

@.str.172 = private unnamed_addr constant [1 x i8] zeroinitializer, align 1

; Function Attrs: null_pointer_is_valid sspstrong uwtable
define internal i32 @dissect_per_any_oid_str(ptr noundef %0, i32 noundef %1, ptr noundef %2, ptr noundef %3, i32 noundef %4, ptr noundef %5, i1 noundef zeroext %6) #0 {
  %8 = alloca ptr, align 8
  %9 = alloca i32, align 4
  %10 = alloca ptr, align 8
  %11 = alloca ptr, align 8
  %12 = alloca i32, align 4
  %13 = alloca ptr, align 8
  %14 = alloca i8, align 1
  %15 = alloca ptr, align 8
  %16 = alloca i32, align 4
  store ptr %0, ptr %8, align 8
  store i32 %1, ptr %9, align 4
  store ptr %2, ptr %10, align 8
  store ptr %3, ptr %11, align 8
  store i32 %4, ptr %12, align 4
  store ptr %5, ptr %13, align 8
  %17 = zext i1 %6 to i8
  store i8 %17, ptr %14, align 1
  call void @llvm.lifetime.start.p0(i64 8, ptr %15) #11
  store ptr null, ptr %15, align 8
  call void @llvm.lifetime.start.p0(i64 4, ptr %16) #11
  %18 = load ptr, ptr %8, align 8
  %19 = load i32, ptr %9, align 4
  %20 = load ptr, ptr %10, align 8
  %21 = load ptr, ptr %11, align 8
  %22 = load i32, ptr %12, align 4
  %23 = load ptr, ptr %13, align 8
  %24 = icmp ne ptr %23, null
  br i1 %24, label %25, label %26

25:                                               ; preds = %7
  br label %27

26:                                               ; preds = %7
  br label %27

27:                                               ; preds = %26, %25
  %28 = phi ptr [ %15, %25 ], [ null, %26 ]
  %29 = load i8, ptr %14, align 1, !range !6, !noundef !7
  %30 = trunc i8 %29 to i1
  %31 = call i32 @dissect_per_any_oid(ptr noundef %18, i32 noundef %19, ptr noundef %20, ptr noundef %21, i32 noundef %22, ptr noundef %28, i1 noundef zeroext %30)
  store i32 %31, ptr %9, align 4
  %32 = load ptr, ptr %13, align 8
  %33 = icmp ne ptr %32, null
  br i1 %33, label %34, label %56

34:                                               ; preds = %27
  %35 = load ptr, ptr %15, align 8
  %36 = icmp ne ptr %35, null
  br i1 %36, label %37, label %53

37:                                               ; preds = %34
  %38 = load ptr, ptr %15, align 8
  %39 = call i32 @tvb_captured_length(ptr noundef %38)
  store i32 %39, ptr %16, align 4
  %40 = icmp ne i32 %39, 0
  br i1 %40, label %41, label %53

41:                                               ; preds = %37
  %42 = load ptr, ptr %10, align 8
  %43 = getelementptr inbounds nuw %struct._asn1_ctx_t, ptr %42, i32 0, i32 3
  %44 = load ptr, ptr %43, align 8
  %45 = getelementptr inbounds nuw %struct._packet_info, ptr %44, i32 0, i32 51
  %46 = load ptr, ptr %45, align 8
  %47 = load ptr, ptr %15, align 8
  %48 = load i32, ptr %16, align 4
  %49 = call ptr @tvb_get_ptr(ptr noundef %47, i32 noundef 0, i32 noundef %48)
  %50 = load i32, ptr %16, align 4
  %51 = call ptr @oid_encoded2string(ptr noundef %46, ptr noundef %49, i32 noundef %50)
  %52 = load ptr, ptr %13, align 8
  store ptr %51, ptr %52, align 8
  br label %55

53:                                               ; preds = %37, %34
  %54 = load ptr, ptr %13, align 8
  store ptr @.str.172, ptr %54, align 8
  br label %55

55:                                               ; preds = %53, %41
  br label %56

56:                                               ; preds = %55, %27
  %57 = load i32, ptr %9, align 4
  call void @llvm.lifetime.end.p0(i64 4, ptr %16) #11
  call void @llvm.lifetime.end.p0(i64 8, ptr %15) #11
  ret i32 %57
}

; Function Attrs: null_pointer_is_valid sspstrong uwtable
define i32 @dissect_per_relative_oid_str(ptr noundef %0, i32 noundef %1, ptr noundef %2, ptr noundef %3, i32 noundef %4, ptr noundef %5) #0 {
  %7 = alloca ptr, align 8
  %8 = alloca i32, align 4
  %9 = alloca ptr, align 8
  %10 = alloca ptr, align 8
  %11 = alloca i32, align 4
  %12 = alloca ptr, align 8
  store ptr %0, ptr %7, align 8
  store i32 %1, ptr %8, align 4
  store ptr %2, ptr %9, align 8
  store ptr %3, ptr %10, align 8
  store i32 %4, ptr %11, align 4
  store ptr %5, ptr %12, align 8
  %13 = load ptr, ptr %7, align 8
  %14 = load i32, ptr %8, align 4
  %15 = load ptr, ptr %9, align 8
  %16 = load ptr, ptr %10, align 8
  %17 = load i32, ptr %11, align 4
  %18 = load ptr, ptr %12, align 8
  %19 = call i32 @dissect_per_any_oid_str(ptr noundef %13, i32 noundef %14, ptr noundef %15, ptr noundef %16, i32 noundef %17, ptr noundef %18, i1 noundef zeroext false)
  ret i32 %19
}