; Function Attrs: null_pointer_is_valid sspstrong uwtable
define i32 @dissect_per_relative_oid_str(ptr noundef %0, i32 noundef %1, ptr noundef captures(none) %2, ptr noundef %3, i32 noundef %4, ptr noundef writeonly captures(address_is_null) %5) local_unnamed_addr #0 {
  %7 = alloca ptr, align 8
  call void @llvm.lifetime.start.p0(i64 8, ptr nonnull %7) #13
  store ptr null, ptr %7, align 8
  %.not.i = icmp eq ptr %5, null
  %..i = select i1 %.not.i, ptr null, ptr %7
  %8 = call fastcc i32 @dissect_per_any_oid(ptr noundef %0, i32 noundef %1, ptr noundef %2, ptr noundef %3, i32 noundef %4, ptr noundef %..i, i1 noundef zeroext false)
  br i1 %.not.i, label %dissect_per_any_oid_str.exit, label %9

9:                                                ; preds = %6
  %10 = load ptr, ptr %7, align 8
  %.not15.i = icmp eq ptr %10, null
  br i1 %.not15.i, label %.sink.split.i, label %11

11:                                               ; preds = %9
  %12 = call i32 @tvb_captured_length(ptr noundef nonnull %10)
  %.not16.i = icmp eq i32 %12, 0
  br i1 %.not16.i, label %.sink.split.i, label %13

13:                                               ; preds = %11
  %14 = getelementptr inbounds nuw i8, ptr %2, i64 16
  %15 = load ptr, ptr %14, align 8
  %16 = getelementptr inbounds nuw i8, ptr %15, i64 408
  %17 = load ptr, ptr %16, align 8
  %18 = load ptr, ptr %7, align 8
  %19 = call ptr @tvb_get_ptr(ptr noundef %18, i32 noundef 0, i32 noundef %12)
  %20 = call ptr @oid_encoded2string(ptr noundef %17, ptr noundef %19, i32 noundef %12)
  br label %.sink.split.i

.sink.split.i:                                    ; preds = %13, %11, %9
  %.sink.i = phi ptr [ %20, %13 ], [ @.str.172, %11 ], [ @.str.172, %9 ]
  store ptr %.sink.i, ptr %5, align 8
  br label %dissect_per_any_oid_str.exit

dissect_per_any_oid_str.exit:                     ; preds = %6, %.sink.split.i
  call void @llvm.lifetime.end.p0(i64 8, ptr nonnull %7) #13
  ret i32 %8
}